target datalayout = "e-m:e-p270:32:32-p271:32:32-p272:64:64-i64:64-i128:128-f80:128-n8:16:32:64-S128"
target triple = "x86_64-pc-linux-gnu"

%struct.cache_time = type { i32, i32 }
%struct.object_id = type { [32 x i8], i32 }
%struct.index_state = type { ptr, i32, i32, i32, i32, ptr, ptr, ptr, %struct.cache_time, i8, i32, %struct.hashmap, %struct.hashmap, %struct.object_id, ptr, ptr, ptr, ptr, ptr, ptr, ptr }
%struct.hashmap = type { ptr, ptr, ptr, i32, i32, i32, i32, i8 }
%struct.pattern_list = type { i32, i32, ptr, ptr, i32, i32, %struct.hashmap, %struct.hashmap }

@.str.2 = private unnamed_addr constant [1 x i8] zeroinitializer, align 1
@core_apply_sparse_checkout = external global i32, align 4
@.str.17 = private unnamed_addr constant [21 x i8] c"info/sparse-checkout\00", align 1
@core_sparse_checkout_cone = external global i32, align 4

; Function Attrs: nounwind uwtable
define dso_local i32 @add_patterns_from_file_to_list(ptr noundef %0, ptr noundef %1, i32 noundef %2, ptr noundef %3, ptr noundef %4, i32 noundef %5) #0 {
  %7 = alloca ptr, align 8
  %8 = alloca ptr, align 8
  %9 = alloca i32, align 4
  %10 = alloca ptr, align 8
  %11 = alloca ptr, align 8
  %12 = alloca i32, align 4
  store ptr %0, ptr %7, align 8, !tbaa !13
  store ptr %1, ptr %8, align 8, !tbaa !13
  store i32 %2, ptr %9, align 4, !tbaa !16
  store ptr %3, ptr %10, align 8, !tbaa !123
  store ptr %4, ptr %11, align 8, !tbaa !41
  store i32 %5, ptr %12, align 4, !tbaa !16
  %13 = load ptr, ptr %7, align 8, !tbaa !13
  %14 = load ptr, ptr %8, align 8, !tbaa !13
  %15 = load i32, ptr %9, align 4, !tbaa !16
  %16 = load ptr, ptr %10, align 8, !tbaa !123
  %17 = load ptr, ptr %11, align 8, !tbaa !41
  %18 = load i32, ptr %12, align 4, !tbaa !16
  %19 = call i32 @add_patterns(ptr noundef %13, ptr noundef %14, i32 noundef %15, ptr noundef %16, ptr noundef %17, i32 noundef %18, ptr noundef null)
  ret i32 %19
}

; Function Attrs: nounwind uwtable
define dso_local ptr @get_sparse_checkout_filename() #0 {
  %1 = call ptr (ptr, ...) @git_pathdup(ptr noundef @.str.17)
  ret ptr %1
}

; Function Attrs: nounwind uwtable
define dso_local i32 @get_sparse_checkout_patterns(ptr noundef %0) #0 {
  %2 = alloca ptr, align 8
  %3 = alloca i32, align 4
  %4 = alloca ptr, align 8
  store ptr %0, ptr %2, align 8, !tbaa !123
  call void @llvm.lifetime.start.p0(i64 4, ptr %3) #12
  call void @llvm.lifetime.start.p0(i64 8, ptr %4) #12
  %5 = call ptr @get_sparse_checkout_filename()
  store ptr %5, ptr %4, align 8, !tbaa !13
  %6 = load i32, ptr @core_sparse_checkout_cone, align 4, !tbaa !16
  %7 = load ptr, ptr %2, align 8, !tbaa !123
  %8 = getelementptr inbounds nuw %struct.pattern_list, ptr %7, i32 0, i32 4
  store i32 %6, ptr %8, align 8, !tbaa !130
  %9 = load ptr, ptr %4, align 8, !tbaa !13
  %10 = load ptr, ptr %2, align 8, !tbaa !123
  %11 = call i32 @add_patterns_from_file_to_list(ptr noundef %9, ptr noundef @.str.2, i32 noundef 0, ptr noundef %10, ptr noundef null, i32 noundef 0)
  store i32 %11, ptr %3, align 4, !tbaa !16
  %12 = load ptr, ptr %4, align 8, !tbaa !13
  call void @free(ptr noundef %12) #12
  %13 = load i32, ptr %3, align 4, !tbaa !16
  call void @llvm.lifetime.end.p0(i64 8, ptr %4) #12
  call void @llvm.lifetime.end.p0(i64 4, ptr %3) #12
  ret i32 %13
}

; Function Attrs: nounwind uwtable
define dso_local i32 @init_sparse_checkout_patterns(ptr noundef %0) #0 {
  %2 = alloca i32, align 4
  %3 = alloca ptr, align 8
  store ptr %0, ptr %3, align 8, !tbaa !41
  %4 = load i32, ptr @core_apply_sparse_checkout, align 4, !tbaa !16
  %5 = icmp ne i32 %4, 0
  br i1 %5, label %7, label %6

6:                                                ; preds = %1
  store i32 1, ptr %2, align 4
  br label %31

7:                                                ; preds = %1
  %8 = load ptr, ptr %3, align 8, !tbaa !41
  %9 = getelementptr inbounds nuw %struct.index_state, ptr %8, i32 0, i32 20
  %10 = load ptr, ptr %9, align 8, !tbaa !162
  %11 = icmp ne ptr %10, null
  br i1 %11, label %12, label %13

12:                                               ; preds = %7
  store i32 0, ptr %2, align 4
  br label %31

13:                                               ; preds = %7
  %14 = call ptr @xcalloc(i64 noundef 1, i64 noundef 128)
  %15 = load ptr, ptr %3, align 8, !tbaa !41
  %16 = getelementptr inbounds nuw %struct.index_state, ptr %15, i32 0, i32 20
  store ptr %14, ptr %16, align 8, !tbaa !162
  %17 = load ptr, ptr %3, align 8, !tbaa !41
  %18 = getelementptr inbounds nuw %struct.index_state, ptr %17, i32 0, i32 20
  %19 = load ptr, ptr %18, align 8, !tbaa !162
  %20 = call i32 @get_sparse_checkout_patterns(ptr noundef %19)
  %21 = icmp slt i32 %20, 0
  br i1 %21, label %22, label %30

22:                                               ; preds = %13
  br label %23

23:                                               ; preds = %22
  %24 = load ptr, ptr %3, align 8, !tbaa !41
  %25 = getelementptr inbounds nuw %struct.index_state, ptr %24, i32 0, i32 20
  %26 = load ptr, ptr %25, align 8, !tbaa !162
  call void @free(ptr noundef %26) #12
  %27 = load ptr, ptr %3, align 8, !tbaa !41
  %28 = getelementptr inbounds nuw %struct.index_state, ptr %27, i32 0, i32 20
  store ptr null, ptr %28, align 8, !tbaa !162
  br label %29

29:                                               ; preds = %23
  store i32 -1, ptr %2, align 4
  br label %31

30:                                               ; preds = %13
  store i32 0, ptr %2, align 4
  br label %31

31:                                               ; preds = %30, %29, %12, %6
  %32 = load i32, ptr %2, align 4
  ret i32 %32
}

; Function Attrs: nounwind uwtable
define internal i32 @path_in_sparse_checkout_1(ptr noundef %0, ptr noundef %1, i32 noundef %2) #0 {
  %4 = alloca i32, align 4
  %5 = alloca ptr, align 8
  %6 = alloca ptr, align 8
  %7 = alloca i32, align 4
  %8 = alloca i32, align 4
  %9 = alloca i32, align 4
  %10 = alloca ptr, align 8
  %11 = alloca ptr, align 8
  %12 = alloca i32, align 4
  store ptr %0, ptr %5, align 8, !tbaa !13
  store ptr %1, ptr %6, align 8, !tbaa !41
  store i32 %2, ptr %7, align 4, !tbaa !16
  call void @llvm.lifetime.start.p0(i64 4, ptr %8) #12
  store i32 8, ptr %8, align 4, !tbaa !16
  call void @llvm.lifetime.start.p0(i64 4, ptr %9) #12
  store i32 -1, ptr %9, align 4, !tbaa !16
  call void @llvm.lifetime.start.p0(i64 8, ptr %10) #12
  call void @llvm.lifetime.start.p0(i64 8, ptr %11) #12
  %13 = load ptr, ptr %5, align 8, !tbaa !13
  %14 = load i8, ptr %13, align 1, !tbaa !15
  %15 = icmp ne i8 %14, 0
  br i1 %15, label %16, label %30

16:                                               ; preds = %3
  %17 = load ptr, ptr %6, align 8, !tbaa !41
  %18 = call i32 @init_sparse_checkout_patterns(ptr noundef %17)
  %19 = icmp ne i32 %18, 0
  br i1 %19, label %30, label %20

20:                                               ; preds = %16
  %21 = load i32, ptr %7, align 4, !tbaa !16
  %22 = icmp ne i32 %21, 0
  br i1 %22, label %23, label %31

23:                                               ; preds = %20
  %24 = load ptr, ptr %6, align 8, !tbaa !41
  %25 = getelementptr inbounds nuw %struct.index_state, ptr %24, i32 0, i32 20
  %26 = load ptr, ptr %25, align 8, !tbaa !162
  %27 = getelementptr inbounds nuw %struct.pattern_list, ptr %26, i32 0, i32 4
  %28 = load i32, ptr %27, align 8, !tbaa !130
  %29 = icmp ne i32 %28, 0
  br i1 %29, label %31, label %30

30:                                               ; preds = %23, %16, %3
  store i32 1, ptr %4, align 4
  store i32 1, ptr %12, align 4
  br label %92

31:                                               ; preds = %23, %20
  %32 = load ptr, ptr %5, align 8, !tbaa !13
  %33 = load ptr, ptr %5, align 8, !tbaa !13
  %34 = call i64 @strlen(ptr noundef %33) #13
  %35 = getelementptr inbounds nuw i8, ptr %32, i64 %34
  store ptr %35, ptr %10, align 8, !tbaa !13
  br label %36

36:                                               ; preds = %86, %31
  %37 = load ptr, ptr %10, align 8, !tbaa !13
  %38 = load ptr, ptr %5, align 8, !tbaa !13
  %39 = icmp ugt ptr %37, %38
  br i1 %39, label %40, label %43

40:                                               ; preds = %36
  %41 = load i32, ptr %9, align 4, !tbaa !16
  %42 = icmp eq i32 %41, -1
  br label %43

43:                                               ; preds = %40, %36
  %44 = phi i1 [ false, %36 ], [ %42, %40 ]
  br i1 %44, label %45, label %88

45:                                               ; preds = %43
  %46 = load ptr, ptr %10, align 8, !tbaa !13
  %47 = getelementptr inbounds i8, ptr %46, i64 -1
  store ptr %47, ptr %11, align 8, !tbaa !13
  br label %48

48:                                               ; preds = %60, %45
  %49 = load ptr, ptr %11, align 8, !tbaa !13
  %50 = load ptr, ptr %5, align 8, !tbaa !13
  %51 = icmp ugt ptr %49, %50
  br i1 %51, label %52, label %57

52:                                               ; preds = %48
  %53 = load ptr, ptr %11, align 8, !tbaa !13
  %54 = load i8, ptr %53, align 1, !tbaa !15
  %55 = sext i8 %54 to i32
  %56 = icmp ne i32 %55, 47
  br label %57

57:                                               ; preds = %52, %48
  %58 = phi i1 [ false, %48 ], [ %56, %52 ]
  br i1 %58, label %59, label %63

59:                                               ; preds = %57
  br label %60

60:                                               ; preds = %59
  %61 = load ptr, ptr %11, align 8, !tbaa !13
  %62 = getelementptr inbounds i8, ptr %61, i32 -1
  store ptr %62, ptr %11, align 8, !tbaa !13
  br label %48, !llvm.loop !163

63:                                               ; preds = %57
  %64 = load ptr, ptr %5, align 8, !tbaa !13
  %65 = load ptr, ptr %10, align 8, !tbaa !13
  %66 = load ptr, ptr %5, align 8, !tbaa !13
  %67 = ptrtoint ptr %65 to i64
  %68 = ptrtoint ptr %66 to i64
  %69 = sub i64 %67, %68
  %70 = trunc i64 %69 to i32
  %71 = load ptr, ptr %11, align 8, !tbaa !13
  %72 = load ptr, ptr %5, align 8, !tbaa !13
  %73 = icmp ugt ptr %71, %72
  br i1 %73, label %74, label %77

74:                                               ; preds = %63
  %75 = load ptr, ptr %11, align 8, !tbaa !13
  %76 = getelementptr inbounds i8, ptr %75, i64 1
  br label %79

77:                                               ; preds = %63
  %78 = load ptr, ptr %5, align 8, !tbaa !13
  br label %79

79:                                               ; preds = %77, %74
  %80 = phi ptr [ %76, %74 ], [ %78, %77 ]
  %81 = load ptr, ptr %6, align 8, !tbaa !41
  %82 = getelementptr inbounds nuw %struct.index_state, ptr %81, i32 0, i32 20
  %83 = load ptr, ptr %82, align 8, !tbaa !162
  %84 = load ptr, ptr %6, align 8, !tbaa !41
  %85 = call i32 @path_matches_pattern_list(ptr noundef %64, i32 noundef %70, ptr noundef %80, ptr noundef %8, ptr noundef %83, ptr noundef %84)
  store i32 %85, ptr %9, align 4, !tbaa !16
  store i32 4, ptr %8, align 4, !tbaa !16
  br label %86

86:                                               ; preds = %79
  %87 = load ptr, ptr %11, align 8, !tbaa !13
  store ptr %87, ptr %10, align 8, !tbaa !13
  br label %36, !llvm.loop !164

88:                                               ; preds = %43
  %89 = load i32, ptr %9, align 4, !tbaa !16
  %90 = icmp sgt i32 %89, 0
  %91 = zext i1 %90 to i32
  store i32 %91, ptr %4, align 4
  store i32 1, ptr %12, align 4
  br label %92

92:                                               ; preds = %88, %30
  call void @llvm.lifetime.end.p0(i64 8, ptr %11) #12
  call void @llvm.lifetime.end.p0(i64 8, ptr %10) #12
  call void @llvm.lifetime.end.p0(i64 4, ptr %9) #12
  call void @llvm.lifetime.end.p0(i64 4, ptr %8) #12
  %93 = load i32, ptr %4, align 4
  ret i32 %93
}