; Function Attrs: nounwind uwtable
define internal fastcc range(i32 0, 2) i32 @path_in_sparse_checkout_1(ptr noundef %0, ptr noundef %1, i32 noundef range(i32 0, 2) %2) unnamed_addr #0 {
  %4 = alloca i32, align 4
  call void @llvm.lifetime.start.p0(i64 4, ptr nonnull %4) #27
  store i32 8, ptr %4, align 4, !tbaa !10
  %5 = load i8, ptr %0, align 1, !tbaa !4
  %.not = icmp eq i8 %5, 0
  %6 = load i32, ptr @core_apply_sparse_checkout, align 4
  %.not.i = icmp eq i32 %6, 0
  %or.cond = select i1 %.not, i1 true, i1 %.not.i
  br i1 %or.cond, label %init_sparse_checkout_patterns.exit, label %7

7:                                                ; preds = %3
  %8 = getelementptr inbounds nuw i8, ptr %1, i64 248
  %9 = load ptr, ptr %8, align 8, !tbaa !145
  %.not5.i = icmp eq ptr %9, null
  br i1 %.not5.i, label %10, label %19

10:                                               ; preds = %7
  %11 = tail call ptr @xcalloc(i64 noundef 1, i64 noundef 128) #27
  store ptr %11, ptr %8, align 8, !tbaa !145
  %12 = tail call ptr (ptr, ...) @git_pathdup(ptr noundef nonnull @.str.17)
  %13 = load i32, ptr @core_sparse_checkout_cone, align 4, !tbaa !10
  %14 = getelementptr inbounds nuw i8, ptr %11, i64 24
  store i32 %13, ptr %14, align 8, !tbaa !120
  %15 = tail call fastcc range(i32 -1, 1) i32 @add_patterns(ptr noundef %12, ptr noundef nonnull @.str.2, i32 noundef 0, ptr noundef %11, ptr noundef null, i32 noundef 0, ptr noundef null)
  tail call void @free(ptr noundef %12) #27
  %16 = icmp slt i32 %15, 0
  br i1 %16, label %17, label %19

17:                                               ; preds = %10
  %18 = load ptr, ptr %8, align 8, !tbaa !145
  tail call void @free(ptr noundef %18) #27
  store ptr null, ptr %8, align 8, !tbaa !145
  br label %init_sparse_checkout_patterns.exit

19:                                               ; preds = %7, %10
  %.not30 = icmp eq i32 %2, 0
  br i1 %.not30, label %24, label %20

20:                                               ; preds = %19
  %21 = load ptr, ptr %8, align 8, !tbaa !145
  %22 = getelementptr inbounds nuw i8, ptr %21, i64 24
  %23 = load i32, ptr %22, align 8, !tbaa !120
  %.not31 = icmp eq i32 %23, 0
  br i1 %.not31, label %init_sparse_checkout_patterns.exit, label %24

24:                                               ; preds = %20, %19
  %25 = tail call i64 @strlen(ptr noundef nonnull dereferenceable(1) %0) #28
  %.not36 = icmp eq i64 %25, 0
  br i1 %.not36, label %init_sparse_checkout_patterns.exit, label %.preheader.lr.ph

.preheader.lr.ph:                                 ; preds = %24
  %26 = getelementptr inbounds nuw i8, ptr %0, i64 %25
  %27 = ptrtoint ptr %0 to i64
  br label %.preheader

.preheader:                                       ; preds = %.preheader.lr.ph, %.critedge
  %.02535 = phi ptr [ %26, %.preheader.lr.ph ], [ %.0, %.critedge ]
  br label %28

28:                                               ; preds = %.preheader, %30
  %.025.pn = phi ptr [ %.0, %30 ], [ %.02535, %.preheader ]
  %.0 = getelementptr inbounds i8, ptr %.025.pn, i64 -1
  %29 = icmp ugt ptr %.0, %0
  br i1 %29, label %30, label %.critedge

30:                                               ; preds = %28
  %31 = load i8, ptr %.0, align 1, !tbaa !4
  %.not32 = icmp eq i8 %31, 47
  br i1 %.not32, label %.critedge, label %28, !llvm.loop !146

.critedge:                                        ; preds = %28, %30
  %32 = phi ptr [ %0, %28 ], [ %.025.pn, %30 ]
  %33 = ptrtoint ptr %.02535 to i64
  %34 = sub i64 %33, %27
  %35 = trunc i64 %34 to i32
  %36 = load ptr, ptr %8, align 8, !tbaa !145
  %37 = call i32 @path_matches_pattern_list(ptr noundef nonnull %0, i32 noundef %35, ptr noundef nonnull %32, ptr noundef nonnull %4, ptr noundef %36, ptr noundef %1)
  store i32 4, ptr %4, align 4, !tbaa !10
  %38 = icmp eq i32 %37, -1
  %39 = select i1 %29, i1 %38, i1 false
  br i1 %39, label %.preheader, label %._crit_edge.loopexit, !llvm.loop !147

._crit_edge.loopexit:                             ; preds = %.critedge
  %40 = icmp sgt i32 %37, 0
  %41 = zext i1 %40 to i32
  br label %init_sparse_checkout_patterns.exit

init_sparse_checkout_patterns.exit:               ; preds = %24, %._crit_edge.loopexit, %17, %3, %20
  %.027 = phi i32 [ 1, %20 ], [ 1, %3 ], [ 1, %17 ], [ 0, %24 ], [ %41, %._crit_edge.loopexit ]
  call void @llvm.lifetime.end.p0(i64 4, ptr nonnull %4) #27
  ret i32 %.027
}